target datalayout = "e-m:e-p270:32:32-p271:32:32-p272:64:64-i64:64-i128:128-f80:128-n8:16:32:64-S128"
target triple = "x86_64-pc-linux-gnu"

%struct.AVFormatContext = type { ptr, ptr, ptr, ptr, ptr, i32, i32, ptr, i32, ptr, i32, ptr, ptr, i64, i64, i64, i32, i32, i32, i64, i64, ptr, i32, i32, ptr, i32, i32, i32, i32, ptr, i64, i32, i32, %struct.AVIOInterruptCB, i32, i32, i32, i32, i64, i32, i32, i32, i32, i32, i32, i32, i32, i32, i32, i32, i32, i64, i32, i32, i32, i32, i32, ptr, ptr, ptr, ptr, i32, ptr, ptr, ptr, ptr, i32, ptr, ptr, i64, ptr, ptr, ptr, i64 }
%struct.AVIOInterruptCB = type { ptr, ptr }

; Function Attrs: nounwind uwtable
define i32 @ff_mov_read_esds(ptr noundef %0, ptr noundef %1) #0 {
  %3 = alloca i32, align 4
  %4 = alloca ptr, align 8
  %5 = alloca ptr, align 8
  %6 = alloca ptr, align 8
  %7 = alloca i32, align 4
  %8 = alloca i32, align 4
  %9 = alloca i32, align 4
  store ptr %0, ptr %4, align 8, !tbaa !4
  store ptr %1, ptr %5, align 8, !tbaa !9
  call void @llvm.lifetime.start.p0(i64 8, ptr %6) #3
  call void @llvm.lifetime.start.p0(i64 4, ptr %7) #3
  call void @llvm.lifetime.start.p0(i64 4, ptr %8) #3
  store i32 0, ptr %8, align 4, !tbaa !11
  %10 = load ptr, ptr %4, align 8, !tbaa !4
  %11 = getelementptr inbounds nuw %struct.AVFormatContext, ptr %10, i32 0, i32 6
  %12 = load i32, ptr %11, align 4, !tbaa !13
  %13 = icmp ult i32 %12, 1
  br i1 %13, label %14, label %15

14:                                               ; preds = %2
  store i32 0, ptr %3, align 4
  store i32 1, ptr %9, align 4
  br label %51

15:                                               ; preds = %2
  %16 = load ptr, ptr %4, align 8, !tbaa !4
  %17 = getelementptr inbounds nuw %struct.AVFormatContext, ptr %16, i32 0, i32 7
  %18 = load ptr, ptr %17, align 8, !tbaa !28
  %19 = load ptr, ptr %4, align 8, !tbaa !4
  %20 = getelementptr inbounds nuw %struct.AVFormatContext, ptr %19, i32 0, i32 6
  %21 = load i32, ptr %20, align 4, !tbaa !13
  %22 = sub i32 %21, 1
  %23 = zext i32 %22 to i64
  %24 = getelementptr inbounds nuw ptr, ptr %18, i64 %23
  %25 = load ptr, ptr %24, align 8, !tbaa !29
  store ptr %25, ptr %6, align 8, !tbaa !29
  %26 = load ptr, ptr %5, align 8, !tbaa !9
  %27 = call i32 @avio_rb32(ptr noundef %26)
  %28 = load ptr, ptr %4, align 8, !tbaa !4
  %29 = load ptr, ptr %5, align 8, !tbaa !9
  %30 = call i32 @ff_mp4_read_descr(ptr noundef %28, ptr noundef %29, ptr noundef %7)
  %31 = load i32, ptr %7, align 4, !tbaa !11
  %32 = icmp eq i32 %31, 3
  br i1 %32, label %33, label %35

33:                                               ; preds = %15
  %34 = load ptr, ptr %5, align 8, !tbaa !9
  call void @ff_mp4_parse_es_descr(ptr noundef %34, ptr noundef null)
  br label %38

35:                                               ; preds = %15
  %36 = load ptr, ptr %5, align 8, !tbaa !9
  %37 = call i32 @avio_rb16(ptr noundef %36)
  br label %38

38:                                               ; preds = %35, %33
  %39 = load ptr, ptr %4, align 8, !tbaa !4
  %40 = load ptr, ptr %5, align 8, !tbaa !9
  %41 = call i32 @ff_mp4_read_descr(ptr noundef %39, ptr noundef %40, ptr noundef %7)
  %42 = load i32, ptr %7, align 4, !tbaa !11
  %43 = icmp eq i32 %42, 4
  br i1 %43, label %44, label %49

44:                                               ; preds = %38
  %45 = load ptr, ptr %4, align 8, !tbaa !4
  %46 = load ptr, ptr %6, align 8, !tbaa !29
  %47 = load ptr, ptr %5, align 8, !tbaa !9
  %48 = call i32 @ff_mp4_read_dec_config_descr(ptr noundef %45, ptr noundef %46, ptr noundef %47)
  store i32 %48, ptr %8, align 4, !tbaa !11
  br label %49

49:                                               ; preds = %44, %38
  %50 = load i32, ptr %8, align 4, !tbaa !11
  store i32 %50, ptr %3, align 4
  store i32 1, ptr %9, align 4
  br label %51

51:                                               ; preds = %49, %14
  call void @llvm.lifetime.end.p0(i64 4, ptr %8) #3
  call void @llvm.lifetime.end.p0(i64 4, ptr %7) #3
  call void @llvm.lifetime.end.p0(i64 8, ptr %6) #3
  %52 = load i32, ptr %3, align 4
  ret i32 %52
}

; Function Attrs: nocallback nofree nosync nounwind willreturn memory(argmem: readwrite)
declare void @llvm.lifetime.start.p0(i64 immarg, ptr captures(none)) #1

declare i32 @avio_rb32(ptr noundef) #2

declare i32 @ff_mp4_read_descr(ptr noundef, ptr noundef, ptr noundef) #2

declare void @ff_mp4_parse_es_descr(ptr noundef, ptr noundef) #2

declare i32 @avio_rb16(ptr noundef) #2

declare i32 @ff_mp4_read_dec_config_descr(ptr noundef, ptr noundef, ptr noundef) #2

; Function Attrs: nocallback nofree nosync nounwind willreturn memory(argmem: readwrite)
declare void @llvm.lifetime.end.p0(i64 immarg, ptr captures(none)) #1


!llvm.module.flags = !{!0, !1, !2, !3}

!0 = !{i32 1, !"wchar_size", i32 4}
!1 = !{i32 8, !"PIC Level", i32 2}
!2 = !{i32 7, !"uwtable", i32 2}
!3 = !{i32 1, !"override-stack-alignment", i32 16}
!4 = !{!5, !5, i64 0}
!5 = !{!"p1 _ZTS15AVFormatContext", !6, i64 0}
!6 = !{!"any pointer", !7, i64 0}
!7 = !{!"omnipotent char", !8, i64 0}
!8 = !{!"Simple C/C++ TBAA"}
!9 = !{!10, !10, i64 0}
!10 = !{!"p1 _ZTS11AVIOContext", !6, i64 0}
!11 = !{!12, !12, i64 0}
!12 = !{!"int", !7, i64 0}
!13 = !{!14, !12, i64 44}
!14 = !{!"AVFormatContext", !15, i64 0, !16, i64 8, !17, i64 16, !6, i64 24, !10, i64 32, !12, i64 40, !12, i64 44, !18, i64 48, !12, i64 56, !20, i64 64, !12, i64 72, !21, i64 80, !22, i64 88, !23, i64 96, !23, i64 104, !23, i64 112, !12, i64 120, !12, i64 124, !12, i64 128, !23, i64 136, !23, i64 144, !22, i64 152, !12, i64 160, !12, i64 164, !24, i64 168, !12, i64 176, !12, i64 180, !12, i64 184, !12, i64 188, !25, i64 192, !23, i64 200, !12, i64 208, !12, i64 212, !26, i64 216, !12, i64 232, !12, i64 236, !12, i64 240, !12, i64 244, !23, i64 248, !12, i64 256, !12, i64 260, !12, i64 264, !12, i64 268, !12, i64 272, !12, i64 276, !12, i64 280, !12, i64 284, !12, i64 288, !12, i64 292, !12, i64 296, !12, i64 300, !23, i64 304, !12, i64 312, !12, i64 316, !12, i64 320, !12, i64 324, !12, i64 328, !22, i64 336, !22, i64 344, !22, i64 352, !22, i64 360, !12, i64 368, !27, i64 376, !27, i64 384, !27, i64 392, !27, i64 400, !12, i64 408, !6, i64 416, !6, i64 424, !23, i64 432, !22, i64 440, !6, i64 448, !6, i64 456, !23, i64 464}
!15 = !{!"p1 _ZTS7AVClass", !6, i64 0}
!16 = !{!"p1 _ZTS13AVInputFormat", !6, i64 0}
!17 = !{!"p1 _ZTS14AVOutputFormat", !6, i64 0}
!18 = !{!"p2 _ZTS8AVStream", !19, i64 0}
!19 = !{!"any p2 pointer", !6, i64 0}
!20 = !{!"p2 _ZTS13AVStreamGroup", !19, i64 0}
!21 = !{!"p2 _ZTS9AVChapter", !19, i64 0}
!22 = !{!"p1 omnipotent char", !6, i64 0}
!23 = !{!"long", !7, i64 0}
!24 = !{!"p2 _ZTS9AVProgram", !19, i64 0}
!25 = !{!"p1 _ZTS12AVDictionary", !6, i64 0}
!26 = !{!"AVIOInterruptCB", !6, i64 0, !6, i64 8}
!27 = !{!"p1 _ZTS7AVCodec", !6, i64 0}
!28 = !{!14, !18, i64 48}
!29 = !{!30, !30, i64 0}
!30 = !{!"p1 _ZTS8AVStream", !6, i64 0}
