; ModuleID = 'bench/ffmpeg/original/mov_esds.ll'
source_filename = "bench/ffmpeg/original/mov_esds.ll"
target datalayout = "e-m:e-p270:32:32-p271:32:32-p272:64:64-i64:64-i128:128-f80:128-n8:16:32:64-S128"
target triple = "x86_64-pc-linux-gnu"

; Function Attrs: nounwind uwtable
define i32 @ff_mov_read_esds(ptr noundef %0, ptr noundef %1) local_unnamed_addr #0 {
  %3 = alloca i32, align 4
  call void @llvm.lifetime.start.p0(i64 4, ptr nonnull %3) #3
  %4 = getelementptr inbounds nuw i8, ptr %0, i64 44
  %5 = load i32, ptr %4, align 4, !tbaa !4
  %6 = icmp eq i32 %5, 0
  br i1 %6, label %27, label %7

7:                                                ; preds = %2
  %8 = getelementptr inbounds nuw i8, ptr %0, i64 48
  %9 = load ptr, ptr %8, align 8, !tbaa !24
  %10 = add i32 %5, -1
  %11 = zext i32 %10 to i64
  %12 = getelementptr inbounds nuw ptr, ptr %9, i64 %11
  %13 = load ptr, ptr %12, align 8, !tbaa !25
  %14 = tail call i32 @avio_rb32(ptr noundef %1) #3
  %15 = call i32 @ff_mp4_read_descr(ptr noundef nonnull %0, ptr noundef %1, ptr noundef nonnull %3) #3
  %16 = load i32, ptr %3, align 4, !tbaa !27
  %17 = icmp eq i32 %16, 3
  br i1 %17, label %18, label %19

18:                                               ; preds = %7
  call void @ff_mp4_parse_es_descr(ptr noundef %1, ptr noundef null) #3
  br label %21

19:                                               ; preds = %7
  %20 = call i32 @avio_rb16(ptr noundef %1) #3
  br label %21

21:                                               ; preds = %19, %18
  %22 = call i32 @ff_mp4_read_descr(ptr noundef nonnull %0, ptr noundef %1, ptr noundef nonnull %3) #3
  %23 = load i32, ptr %3, align 4, !tbaa !27
  %24 = icmp eq i32 %23, 4
  br i1 %24, label %25, label %27

25:                                               ; preds = %21
  %26 = call i32 @ff_mp4_read_dec_config_descr(ptr noundef nonnull %0, ptr noundef %13, ptr noundef %1) #3
  br label %27

27:                                               ; preds = %21, %25, %2
  %.014 = phi i32 [ 0, %2 ], [ %26, %25 ], [ 0, %21 ]
  call void @llvm.lifetime.end.p0(i64 4, ptr nonnull %3) #3
  ret i32 %.014
}

; Function Attrs: mustprogress nocallback nofree nosync nounwind willreturn memory(argmem: readwrite)
declare void @llvm.lifetime.start.p0(i64 immarg, ptr captures(none)) #1

declare i32 @avio_rb32(ptr noundef) local_unnamed_addr #2

declare i32 @ff_mp4_read_descr(ptr noundef, ptr noundef, ptr noundef) local_unnamed_addr #2

declare void @ff_mp4_parse_es_descr(ptr noundef, ptr noundef) local_unnamed_addr #2

declare i32 @avio_rb16(ptr noundef) local_unnamed_addr #2

declare i32 @ff_mp4_read_dec_config_descr(ptr noundef, ptr noundef, ptr noundef) local_unnamed_addr #2

; Function Attrs: mustprogress nocallback nofree nosync nounwind willreturn memory(argmem: readwrite)
declare void @llvm.lifetime.end.p0(i64 immarg, ptr captures(none)) #1


!llvm.module.flags = !{!0, !1, !2, !3}

!0 = !{i32 1, !"wchar_size", i32 4}
!1 = !{i32 8, !"PIC Level", i32 2}
!2 = !{i32 7, !"uwtable", i32 2}
!3 = !{i32 1, !"override-stack-alignment", i32 16}
!4 = !{!5, !13, i64 44}
!5 = !{!"AVFormatContext", !6, i64 0, !10, i64 8, !11, i64 16, !7, i64 24, !12, i64 32, !13, i64 40, !13, i64 44, !14, i64 48, !13, i64 56, !16, i64 64, !13, i64 72, !17, i64 80, !18, i64 88, !19, i64 96, !19, i64 104, !19, i64 112, !13, i64 120, !13, i64 124, !13, i64 128, !19, i64 136, !19, i64 144, !18, i64 152, !13, i64 160, !13, i64 164, !20, i64 168, !13, i64 176, !13, i64 180, !13, i64 184, !13, i64 188, !21, i64 192, !19, i64 200, !13, i64 208, !13, i64 212, !22, i64 216, !13, i64 232, !13, i64 236, !13, i64 240, !13, i64 244, !19, i64 248, !13, i64 256, !13, i64 260, !13, i64 264, !13, i64 268, !13, i64 272, !13, i64 276, !13, i64 280, !13, i64 284, !13, i64 288, !13, i64 292, !13, i64 296, !13, i64 300, !19, i64 304, !13, i64 312, !13, i64 316, !13, i64 320, !13, i64 324, !13, i64 328, !18, i64 336, !18, i64 344, !18, i64 352, !18, i64 360, !13, i64 368, !23, i64 376, !23, i64 384, !23, i64 392, !23, i64 400, !13, i64 408, !7, i64 416, !7, i64 424, !19, i64 432, !18, i64 440, !7, i64 448, !7, i64 456, !19, i64 464}
!6 = !{!"p1 _ZTS7AVClass", !7, i64 0}
!7 = !{!"any pointer", !8, i64 0}
!8 = !{!"omnipotent char", !9, i64 0}
!9 = !{!"Simple C/C++ TBAA"}
!10 = !{!"p1 _ZTS13AVInputFormat", !7, i64 0}
!11 = !{!"p1 _ZTS14AVOutputFormat", !7, i64 0}
!12 = !{!"p1 _ZTS11AVIOContext", !7, i64 0}
!13 = !{!"int", !8, i64 0}
!14 = !{!"p2 _ZTS8AVStream", !15, i64 0}
!15 = !{!"any p2 pointer", !7, i64 0}
!16 = !{!"p2 _ZTS13AVStreamGroup", !15, i64 0}
!17 = !{!"p2 _ZTS9AVChapter", !15, i64 0}
!18 = !{!"p1 omnipotent char", !7, i64 0}
!19 = !{!"long", !8, i64 0}
!20 = !{!"p2 _ZTS9AVProgram", !15, i64 0}
!21 = !{!"p1 _ZTS12AVDictionary", !7, i64 0}
!22 = !{!"AVIOInterruptCB", !7, i64 0, !7, i64 8}
!23 = !{!"p1 _ZTS7AVCodec", !7, i64 0}
!24 = !{!5, !14, i64 48}
!25 = !{!26, !26, i64 0}
!26 = !{!"p1 _ZTS8AVStream", !7, i64 0}
!27 = !{!13, !13, i64 0}
